; Function Attrs: mustprogress nounwind uwtable
define hidden void @_ZN16char_decl_pluginD2Ev(ptr noundef nonnull align 8 captures(none) dereferenceable(40) initializes((0, 8)) %0) unnamed_addr #4 align 2 personality ptr @__gxx_personality_v0 {
  store ptr getelementptr inbounds nuw inrange(-16, 168) (i8, ptr @_ZTV16char_decl_plugin, i64 16), ptr %0, align 8, !tbaa !11
  %2 = getelementptr inbounds nuw i8, ptr %0, i64 8
  %3 = load ptr, ptr %2, align 8, !tbaa !3
  %4 = getelementptr inbounds nuw i8, ptr %0, i64 24
  %5 = load ptr, ptr %4, align 8, !tbaa !13
  %.not.i = icmp eq ptr %5, null
  br i1 %.not.i, label %_ZN11ast_manager7dec_refEP3ast.exit, label %6

6:                                                ; preds = %1
  %7 = getelementptr inbounds nuw i8, ptr %5, i64 8
  %8 = load i32, ptr %7, align 4, !tbaa !18
  %9 = add i32 %8, -1
  store i32 %9, ptr %7, align 4, !tbaa !18
  %10 = icmp eq i32 %9, 0
  br i1 %10, label %11, label %_ZN11ast_manager7dec_refEP3ast.exit

11:                                               ; preds = %6
  invoke void @_ZN11ast_manager11delete_nodeEP3ast(ptr noundef nonnull align 8 dereferenceable(976) %3, ptr noundef nonnull %5)
          to label %_ZN11ast_manager7dec_refEP3ast.exit unwind label %12

_ZN11ast_manager7dec_refEP3ast.exit:              ; preds = %6, %1, %11
  ret void

12:                                               ; preds = %11
  %13 = landingpad { ptr, i32 }
          catch ptr null
  %14 = extractvalue { ptr, i32 } %13, 0
  tail call void @__clang_call_terminate(ptr %14) #19
  unreachable
}